target datalayout = "e-m:e-p270:32:32-p271:32:32-p272:64:64-i64:64-i128:128-f80:128-n8:16:32:64-S128"
target triple = "x86_64-pc-linux-gnu"

; Function Attrs: mustprogress nounwind uwtable
define noundef i32 @_ZN5draco14DataTypeLengthENS_8DataTypeE(i32 noundef %0) #0 {
  %2 = alloca i32, align 4
  %3 = alloca i32, align 4
  store i32 %0, ptr %3, align 4, !tbaa !3
  %4 = load i32, ptr %3, align 4, !tbaa !3
  switch i32 %4, label %12 [
    i32 1, label %5
    i32 2, label %5
    i32 3, label %6
    i32 4, label %6
    i32 5, label %7
    i32 6, label %7
    i32 7, label %8
    i32 8, label %8
    i32 9, label %9
    i32 10, label %10
    i32 11, label %11
  ]

5:                                                ; preds = %1, %1
  store i32 1, ptr %2, align 4
  br label %13

6:                                                ; preds = %1, %1
  store i32 2, ptr %2, align 4
  br label %13

7:                                                ; preds = %1, %1
  store i32 4, ptr %2, align 4
  br label %13

8:                                                ; preds = %1, %1
  store i32 8, ptr %2, align 4
  br label %13

9:                                                ; preds = %1
  store i32 4, ptr %2, align 4
  br label %13

10:                                               ; preds = %1
  store i32 8, ptr %2, align 4
  br label %13

11:                                               ; preds = %1
  store i32 1, ptr %2, align 4
  br label %13

12:                                               ; preds = %1
  store i32 -1, ptr %2, align 4
  br label %13

13:                                               ; preds = %12, %11, %10, %9, %8, %7, %6, %5
  %14 = load i32, ptr %2, align 4
  ret i32 %14
}

; Function Attrs: mustprogress nounwind uwtable
define noundef zeroext i1 @_ZN5draco18IsDataTypeIntegralENS_8DataTypeE(i32 noundef %0) #0 {
  %2 = alloca i1, align 1
  %3 = alloca i32, align 4
  store i32 %0, ptr %3, align 4, !tbaa !3
  %4 = load i32, ptr %3, align 4, !tbaa !3
  switch i32 %4, label %6 [
    i32 1, label %5
    i32 2, label %5
    i32 3, label %5
    i32 4, label %5
    i32 5, label %5
    i32 6, label %5
    i32 7, label %5
    i32 8, label %5
    i32 11, label %5
  ]

5:                                                ; preds = %1, %1, %1, %1, %1, %1, %1, %1, %1
  store i1 true, ptr %2, align 1
  br label %7

6:                                                ; preds = %1
  store i1 false, ptr %2, align 1
  br label %7

7:                                                ; preds = %6, %5
  %8 = load i1, ptr %2, align 1
  ret i1 %8
}


!llvm.module.flags = !{!0, !1, !2}

!0 = !{i32 1, !"wchar_size", i32 4}
!1 = !{i32 8, !"PIC Level", i32 2}
!2 = !{i32 7, !"uwtable", i32 2}
!3 = !{!4, !4, i64 0}
!4 = !{!"_ZTSN5draco8DataTypeE", !5, i64 0}
!5 = !{!"omnipotent char", !6, i64 0}
!6 = !{!"Simple C++ TBAA"}
